target datalayout = "e-m:e-p270:32:32-p271:32:32-p272:64:64-i64:64-i128:128-f80:128-n8:16:32:64-S128"
target triple = "x86_64-pc-linux-gnu"

%struct.avifArrayInternal = type { ptr, i32, i32, i32 }

; Function Attrs: nounwind uwtable
define hidden void @avifArrayDestroy(ptr noundef %0) #0 {
  %2 = alloca ptr, align 8
  %3 = alloca ptr, align 8
  store ptr %0, ptr %2, align 8
  %4 = load ptr, ptr %2, align 8
  store ptr %4, ptr %3, align 8
  %5 = load ptr, ptr %3, align 8
  %6 = getelementptr inbounds nuw %struct.avifArrayInternal, ptr %5, i32 0, i32 0
  %7 = load ptr, ptr %6, align 8
  %8 = icmp ne ptr %7, null
  br i1 %8, label %9, label %15

9:                                                ; preds = %1
  %10 = load ptr, ptr %3, align 8
  %11 = getelementptr inbounds nuw %struct.avifArrayInternal, ptr %10, i32 0, i32 0
  %12 = load ptr, ptr %11, align 8
  call void @avifFree(ptr noundef %12)
  %13 = load ptr, ptr %3, align 8
  %14 = getelementptr inbounds nuw %struct.avifArrayInternal, ptr %13, i32 0, i32 0
  store ptr null, ptr %14, align 8
  br label %15

15:                                               ; preds = %9, %1
  %16 = load ptr, ptr %3, align 8
  call void @llvm.memset.p0.i64(ptr align 8 %16, i8 0, i64 24, i1 false)
  ret void
}